; Function Attrs: nounwind uwtable
define ptr @l_Lake_Hash_toJson(i64 noundef %0) local_unnamed_addr #0 {
  %2 = icmp sgt i64 %0, -1
  br i1 %2, label %3, label %7, !prof !13

3:                                                ; preds = %1
  %4 = shl nuw i64 %0, 1
  %5 = or disjoint i64 %4, 1
  %6 = inttoptr i64 %5 to ptr
  br label %lean_uint64_to_nat.exit

7:                                                ; preds = %1
  %8 = tail call ptr @lean_big_uint64_to_nat(i64 noundef %0) #4
  br label %lean_uint64_to_nat.exit

lean_uint64_to_nat.exit:                          ; preds = %3, %7
  %.0.i = phi ptr [ %6, %3 ], [ %8, %7 ]
  %9 = tail call ptr @l_Lean_bignumToJson(ptr noundef %.0.i) #4
  ret ptr %9
}